target datalayout = "e-m:e-p270:32:32-p271:32:32-p272:64:64-i64:64-i128:128-f80:128-n8:16:32:64-S128"
target triple = "x86_64-pc-linux-gnu"

%struct.DdManager = type { %struct.DdNode, ptr, ptr, ptr, ptr, ptr, ptr, ptr, i32, i32, double, double, double, i32, i32, i32, i32, i32, i32, ptr, ptr, %struct.DdSubtable, i32, i32, i32, i32, i32, i32, i32, double, i32, i32, i32, ptr, i64, double, i32, ptr, ptr, ptr, ptr, ptr, ptr, ptr, i32, ptr, ptr, ptr, ptr, ptr, ptr, i32, i32, i32, double, i32, i32, i32, i32, double, double, i32, i32, i32, i32, i32, i32, i32, i32, i32, ptr, ptr, i32, i32, i32, i32, i32, i32, ptr, ptr, ptr, ptr, ptr, ptr, ptr, ptr, i32, i64, i64, i64, i32, i64, i64, double, double, double, double, double, double, i32, ptr, ptr, i64 }
%struct.DdNode = type { i32, i32, ptr, %union.anon, i64 }
%union.anon = type { %struct.DdChildren }
%struct.DdChildren = type { ptr, ptr }
%struct.DdSubtable = type { ptr, i32, i32, i32, i32, i32, i32, i32, i32, i32, i32, i32 }
%struct.traventry = type { i32, ptr }

@s_CutLevel = internal global i32 0, align 4

; Function Attrs: nounwind uwtable
define internal void @CountNodeVisits_rec(ptr noundef %0, ptr noundef %1, ptr noundef %2) #0 {
  %4 = alloca ptr, align 8
  %5 = alloca ptr, align 8
  %6 = alloca ptr, align 8
  %7 = alloca ptr, align 8
  %8 = alloca ptr, align 8
  %9 = alloca i32, align 4
  store ptr %0, ptr %4, align 8, !tbaa !3
  store ptr %1, ptr %5, align 8, !tbaa !28
  store ptr %2, ptr %6, align 8, !tbaa !41
  call void @llvm.lifetime.start.p0(i64 8, ptr %7) #6
  call void @llvm.lifetime.start.p0(i64 8, ptr %8) #6
  %10 = load ptr, ptr %6, align 8, !tbaa !41
  %11 = load ptr, ptr %5, align 8, !tbaa !28
  %12 = call i32 @st__find_or_add(ptr noundef %10, ptr noundef %11, ptr noundef %8)
  %13 = icmp ne i32 %12, 0
  br i1 %13, label %14, label %21

14:                                               ; preds = %3
  %15 = load ptr, ptr %8, align 8, !tbaa !52
  %16 = load ptr, ptr %15, align 8, !tbaa !54
  store ptr %16, ptr %7, align 8, !tbaa !47
  %17 = load ptr, ptr %7, align 8, !tbaa !47
  %18 = getelementptr inbounds nuw %struct.traventry, ptr %17, i32 0, i32 0
  %19 = load i32, ptr %18, align 8, !tbaa !55
  %20 = add nsw i32 %19, 1
  store i32 %20, ptr %18, align 8, !tbaa !55
  store i32 1, ptr %9, align 4
  br label %77

21:                                               ; preds = %3
  %22 = call noalias ptr @malloc(i64 noundef 16) #7
  store ptr %22, ptr %7, align 8, !tbaa !47
  %23 = load ptr, ptr %4, align 8, !tbaa !3
  %24 = getelementptr inbounds nuw %struct.DdManager, ptr %23, i32 0, i32 1
  %25 = load ptr, ptr %24, align 8, !tbaa !12
  %26 = ptrtoint ptr %25 to i64
  %27 = xor i64 %26, 1
  %28 = inttoptr i64 %27 to ptr
  %29 = load ptr, ptr %7, align 8, !tbaa !47
  %30 = getelementptr inbounds nuw %struct.traventry, ptr %29, i32 0, i32 1
  store ptr %28, ptr %30, align 8, !tbaa !48
  %31 = load ptr, ptr %4, align 8, !tbaa !3
  %32 = getelementptr inbounds nuw %struct.DdManager, ptr %31, i32 0, i32 1
  %33 = load ptr, ptr %32, align 8, !tbaa !12
  %34 = ptrtoint ptr %33 to i64
  %35 = xor i64 %34, 1
  %36 = inttoptr i64 %35 to ptr
  call void @Cudd_Ref(ptr noundef %36)
  %37 = load ptr, ptr %7, align 8, !tbaa !47
  %38 = getelementptr inbounds nuw %struct.traventry, ptr %37, i32 0, i32 0
  store i32 1, ptr %38, align 8, !tbaa !55
  %39 = load ptr, ptr %7, align 8, !tbaa !47
  %40 = load ptr, ptr %8, align 8, !tbaa !52
  store ptr %39, ptr %40, align 8, !tbaa !54
  %41 = load ptr, ptr %5, align 8, !tbaa !28
  %42 = getelementptr inbounds nuw %struct.DdNode, ptr %41, i32 0, i32 0
  %43 = load i32, ptr %42, align 8, !tbaa !33
  %44 = icmp eq i32 %43, 2147483647
  br i1 %44, label %45, label %49

45:                                               ; preds = %21
  %46 = load ptr, ptr %5, align 8, !tbaa !28
  %47 = getelementptr inbounds nuw %struct.DdNode, ptr %46, i32 0, i32 0
  %48 = load i32, ptr %47, align 8, !tbaa !33
  br label %59

49:                                               ; preds = %21
  %50 = load ptr, ptr %4, align 8, !tbaa !3
  %51 = getelementptr inbounds nuw %struct.DdManager, ptr %50, i32 0, i32 37
  %52 = load ptr, ptr %51, align 8, !tbaa !56
  %53 = load ptr, ptr %5, align 8, !tbaa !28
  %54 = getelementptr inbounds nuw %struct.DdNode, ptr %53, i32 0, i32 0
  %55 = load i32, ptr %54, align 8, !tbaa !33
  %56 = zext i32 %55 to i64
  %57 = getelementptr inbounds nuw i32, ptr %52, i64 %56
  %58 = load i32, ptr %57, align 4, !tbaa !10
  br label %59

59:                                               ; preds = %49, %45
  %60 = phi i32 [ %48, %45 ], [ %58, %49 ]
  %61 = load i32, ptr @s_CutLevel, align 4, !tbaa !10
  %62 = icmp slt i32 %60, %61
  br i1 %62, label %63, label %76

63:                                               ; preds = %59
  %64 = load ptr, ptr %4, align 8, !tbaa !3
  %65 = load ptr, ptr %5, align 8, !tbaa !28
  %66 = getelementptr inbounds nuw %struct.DdNode, ptr %65, i32 0, i32 3
  %67 = getelementptr inbounds nuw %struct.DdChildren, ptr %66, i32 0, i32 1
  %68 = load ptr, ptr %67, align 8, !tbaa !39
  %69 = load ptr, ptr %6, align 8, !tbaa !41
  call void @CountNodeVisits_rec(ptr noundef %64, ptr noundef %68, ptr noundef %69)
  %70 = load ptr, ptr %4, align 8, !tbaa !3
  %71 = load ptr, ptr %5, align 8, !tbaa !28
  %72 = getelementptr inbounds nuw %struct.DdNode, ptr %71, i32 0, i32 3
  %73 = getelementptr inbounds nuw %struct.DdChildren, ptr %72, i32 0, i32 0
  %74 = load ptr, ptr %73, align 8, !tbaa !39
  %75 = load ptr, ptr %6, align 8, !tbaa !41
  call void @CountNodeVisits_rec(ptr noundef %70, ptr noundef %74, ptr noundef %75)
  br label %76

76:                                               ; preds = %63, %59
  store i32 0, ptr %9, align 4
  br label %77

77:                                               ; preds = %76, %14
  call void @llvm.lifetime.end.p0(i64 8, ptr %8) #6
  call void @llvm.lifetime.end.p0(i64 8, ptr %7) #6
  %78 = load i32, ptr %9, align 4
  switch i32 %78, label %80 [
    i32 0, label %79
    i32 1, label %79
  ]

79:                                               ; preds = %77, %77
  ret void

80:                                               ; preds = %77
  unreachable
}