; Function Attrs: nounwind uwtable
define internal fastcc void @CountNodeVisits_rec(ptr noundef %0, ptr noundef %1, ptr noundef %2) unnamed_addr #0 {
  %4 = alloca ptr, align 8
  call void @llvm.lifetime.start.p0(i64 8, ptr nonnull %4) #11
  %5 = call i32 @st__find_or_add(ptr noundef %2, ptr noundef %1, ptr noundef nonnull %4) #11
  %.not = icmp eq i32 %5, 0
  br i1 %.not, label %11, label %6

6:                                                ; preds = %3
  %7 = load ptr, ptr %4, align 8, !tbaa !43
  %8 = load ptr, ptr %7, align 8, !tbaa !45
  %9 = load i32, ptr %8, align 8, !tbaa !46
  %10 = add nsw i32 %9, 1
  store i32 %10, ptr %8, align 8, !tbaa !46
  br label %.thread

11:                                               ; preds = %3
  %12 = call noalias dereferenceable_or_null(16) ptr @malloc(i64 noundef 16) #12
  %13 = getelementptr inbounds nuw i8, ptr %0, i64 40
  %14 = load ptr, ptr %13, align 8, !tbaa !3
  %15 = ptrtoint ptr %14 to i64
  %16 = xor i64 %15, 1
  %17 = inttoptr i64 %16 to ptr
  %18 = getelementptr inbounds nuw i8, ptr %12, i64 8
  store ptr %17, ptr %18, align 8, !tbaa !39
  call void @Cudd_Ref(ptr noundef %17) #11
  store i32 1, ptr %12, align 8, !tbaa !46
  %19 = load ptr, ptr %4, align 8, !tbaa !43
  store ptr %12, ptr %19, align 8, !tbaa !45
  %20 = load i32, ptr %1, align 8, !tbaa !28
  %21 = icmp eq i32 %20, 2147483647
  br i1 %21, label %.thread, label %22

22:                                               ; preds = %11
  %23 = getelementptr inbounds nuw i8, ptr %0, i64 312
  %24 = load ptr, ptr %23, align 8, !tbaa !47
  %25 = zext i32 %20 to i64
  %26 = getelementptr inbounds nuw i32, ptr %24, i64 %25
  %27 = load i32, ptr %26, align 4, !tbaa !29
  %28 = load i32, ptr @s_CutLevel, align 4, !tbaa !29
  %29 = icmp slt i32 %27, %28
  br i1 %29, label %30, label %.thread

30:                                               ; preds = %22
  %31 = getelementptr inbounds nuw i8, ptr %1, i64 16
  %32 = getelementptr inbounds nuw i8, ptr %1, i64 24
  %33 = load ptr, ptr %32, align 8, !tbaa !34
  call fastcc void @CountNodeVisits_rec(ptr noundef nonnull %0, ptr noundef %33, ptr noundef %2)
  %34 = load ptr, ptr %31, align 8, !tbaa !34
  call fastcc void @CountNodeVisits_rec(ptr noundef nonnull %0, ptr noundef %34, ptr noundef %2)
  br label %.thread

.thread:                                          ; preds = %11, %22, %30, %6
  call void @llvm.lifetime.end.p0(i64 8, ptr nonnull %4) #11
  ret void
}